; ModuleID = '55/609.c'
source_filename = "55/609.c"
target datalayout = "e-m:e-p270:32:32-p271:32:32-p272:64:64-i64:64-f80:128-n8:16:32:64-S128"
target triple = "x86_64-pc-linux-gnu"

@.str = private unnamed_addr constant [9 x i8] c"%d %s %d\00", align 1
@.str.1 = private unnamed_addr constant [3 x i8] c"%c\00", align 1

; Function Attrs: noinline nounwind uwtable
define dso_local i64 @form(i8* %0, i32 %1) #0 {
  %3 = alloca i8*, align 8
  %4 = alloca i32, align 4
  %5 = alloca i32, align 4
  %6 = alloca i32, align 4
  %7 = alloca i32, align 4
  %8 = alloca i32, align 4
  store i8* %0, i8** %3, align 8
  store i32 %1, i32* %4, align 4
  store i32 0, i32* %5, align 4
  store i32 0, i32* %7, align 4
  %9 = load i8*, i8** %3, align 8
  %10 = call i64 @strlen(i8* %9) #4
  %11 = trunc i64 %10 to i32
  store i32 %11, i32* %8, align 4
  %12 = load i32, i32* %8, align 4
  %13 = sub nsw i32 %12, 1
  store i32 %13, i32* %6, align 4
  br label %14

14:                                               ; preds = %89, %2
  %15 = load i32, i32* %6, align 4
  %16 = icmp sge i32 %15, 0
  br i1 %16, label %17, label %92

17:                                               ; preds = %14
  %18 = load i8*, i8** %3, align 8
  %19 = load i32, i32* %6, align 4
  %20 = sext i32 %19 to i64
  %21 = getelementptr inbounds i8, i8* %18, i64 %20
  %22 = load i8, i8* %21, align 1
  %23 = sext i8 %22 to i32
  %24 = call i32 @isdigit(i32 %23) #4
  %25 = icmp ne i32 %24, 0
  br i1 %25, label %26, label %34

26:                                               ; preds = %17
  %27 = load i8*, i8** %3, align 8
  %28 = load i32, i32* %6, align 4
  %29 = sext i32 %28 to i64
  %30 = getelementptr inbounds i8, i8* %27, i64 %29
  %31 = load i8, i8* %30, align 1
  %32 = sext i8 %31 to i32
  %33 = sub nsw i32 %32, 48
  store i32 %33, i32* %7, align 4
  br label %75

34:                                               ; preds = %17
  %35 = load i8*, i8** %3, align 8
  %36 = load i32, i32* %6, align 4
  %37 = sext i32 %36 to i64
  %38 = getelementptr inbounds i8, i8* %35, i64 %37
  %39 = load i8, i8* %38, align 1
  %40 = sext i8 %39 to i32
  %41 = call i32 @isalpha(i32 %40) #4
  %42 = icmp ne i32 %41, 0
  br i1 %42, label %43, label %74

43:                                               ; preds = %34
  %44 = load i8*, i8** %3, align 8
  %45 = load i32, i32* %6, align 4
  %46 = sext i32 %45 to i64
  %47 = getelementptr inbounds i8, i8* %44, i64 %46
  %48 = load i8, i8* %47, align 1
  %49 = sext i8 %48 to i32
  %50 = call i32 @islower(i32 %49) #4
  %51 = icmp ne i32 %50, 0
  br i1 %51, label %52, label %65

52:                                               ; preds = %43
  %53 = load i8*, i8** %3, align 8
  %54 = load i32, i32* %6, align 4
  %55 = sext i32 %54 to i64
  %56 = getelementptr inbounds i8, i8* %53, i64 %55
  %57 = load i8, i8* %56, align 1
  %58 = sext i8 %57 to i32
  %59 = call i32 @toupper(i32 %58) #4
  %60 = trunc i32 %59 to i8
  %61 = load i8*, i8** %3, align 8
  %62 = load i32, i32* %6, align 4
  %63 = sext i32 %62 to i64
  %64 = getelementptr inbounds i8, i8* %61, i64 %63
  store i8 %60, i8* %64, align 1
  br label %65

65:                                               ; preds = %52, %43
  %66 = load i8*, i8** %3, align 8
  %67 = load i32, i32* %6, align 4
  %68 = sext i32 %67 to i64
  %69 = getelementptr inbounds i8, i8* %66, i64 %68
  %70 = load i8, i8* %69, align 1
  %71 = sext i8 %70 to i32
  %72 = sub nsw i32 %71, 65
  %73 = add nsw i32 %72, 10
  store i32 %73, i32* %7, align 4
  br label %74

74:                                               ; preds = %65, %34
  br label %75

75:                                               ; preds = %74, %26
  %76 = load i32, i32* %7, align 4
  %77 = load i32, i32* %4, align 4
  %78 = sitofp i32 %77 to double
  %79 = load i32, i32* %8, align 4
  %80 = sub nsw i32 %79, 1
  %81 = load i32, i32* %6, align 4
  %82 = sub nsw i32 %80, %81
  %83 = sitofp i32 %82 to double
  %84 = call double @pow(double %78, double %83) #5
  %85 = fptosi double %84 to i32
  %86 = mul nsw i32 %76, %85
  %87 = load i32, i32* %5, align 4
  %88 = add nsw i32 %87, %86
  store i32 %88, i32* %5, align 4
  br label %89

89:                                               ; preds = %75
  %90 = load i32, i32* %6, align 4
  %91 = add nsw i32 %90, -1
  store i32 %91, i32* %6, align 4
  br label %14

92:                                               ; preds = %14
  %93 = load i32, i32* %5, align 4
  %94 = sext i32 %93 to i64
  ret i64 %94
}

; Function Attrs: nounwind readonly
declare dso_local i64 @strlen(i8*) #1

; Function Attrs: nounwind readonly
declare dso_local i32 @isdigit(i32) #1

; Function Attrs: nounwind readonly
declare dso_local i32 @isalpha(i32) #1

; Function Attrs: nounwind readonly
declare dso_local i32 @islower(i32) #1

; Function Attrs: nounwind readonly
declare dso_local i32 @toupper(i32) #1

; Function Attrs: nounwind
declare dso_local double @pow(double, double) #2

; Function Attrs: noinline nounwind uwtable
define dso_local i32 @reform(i64 %0, i8* %1, i32 %2) #0 {
  %4 = alloca i64, align 8
  %5 = alloca i8*, align 8
  %6 = alloca i32, align 4
  %7 = alloca i32, align 4
  %8 = alloca i32, align 4
  %9 = alloca i32, align 4
  store i64 %0, i64* %4, align 8
  store i8* %1, i8** %5, align 8
  store i32 %2, i32* %6, align 4
  store i32 0, i32* %9, align 4
  br label %10

10:                                               ; preds = %41, %3
  %11 = load i64, i64* %4, align 8
  %12 = load i32, i32* %6, align 4
  %13 = sext i32 %12 to i64
  %14 = icmp sge i64 %11, %13
  br i1 %14, label %15, label %44

15:                                               ; preds = %10
  %16 = load i64, i64* %4, align 8
  %17 = load i32, i32* %6, align 4
  %18 = sext i32 %17 to i64
  %19 = srem i64 %16, %18
  %20 = trunc i64 %19 to i32
  store i32 %20, i32* %7, align 4
  %21 = load i64, i64* %4, align 8
  %22 = load i32, i32* %6, align 4
  %23 = sext i32 %22 to i64
  %24 = sdiv i64 %21, %23
  store i64 %24, i64* %4, align 8
  %25 = load i32, i32* %7, align 4
  %26 = icmp slt i32 %25, 10
  br i1 %26, label %27, label %30

27:                                               ; preds = %15
  %28 = load i32, i32* %7, align 4
  %29 = add nsw i32 48, %28
  br label %34

30:                                               ; preds = %15
  %31 = load i32, i32* %7, align 4
  %32 = add nsw i32 65, %31
  %33 = sub nsw i32 %32, 10
  br label %34

34:                                               ; preds = %30, %27
  %35 = phi i32 [ %29, %27 ], [ %33, %30 ]
  %36 = trunc i32 %35 to i8
  %37 = load i8*, i8** %5, align 8
  %38 = load i32, i32* %9, align 4
  %39 = sext i32 %38 to i64
  %40 = getelementptr inbounds i8, i8* %37, i64 %39
  store i8 %36, i8* %40, align 1
  br label %41

41:                                               ; preds = %34
  %42 = load i32, i32* %9, align 4
  %43 = add nsw i32 %42, 1
  store i32 %43, i32* %9, align 4
  br label %10

44:                                               ; preds = %10
  %45 = load i64, i64* %4, align 8
  %46 = icmp slt i64 %45, 10
  br i1 %46, label %47, label %50

47:                                               ; preds = %44
  %48 = load i64, i64* %4, align 8
  %49 = add nsw i64 48, %48
  br label %54

50:                                               ; preds = %44
  %51 = load i64, i64* %4, align 8
  %52 = add nsw i64 65, %51
  %53 = sub nsw i64 %52, 10
  br label %54

54:                                               ; preds = %50, %47
  %55 = phi i64 [ %49, %47 ], [ %53, %50 ]
  %56 = trunc i64 %55 to i8
  %57 = load i8*, i8** %5, align 8
  %58 = load i32, i32* %9, align 4
  %59 = sext i32 %58 to i64
  %60 = getelementptr inbounds i8, i8* %57, i64 %59
  store i8 %56, i8* %60, align 1
  %61 = load i32, i32* %9, align 4
  ret i32 %61
}

; Function Attrs: noinline nounwind uwtable
define dso_local i32 @main() #0 {
  %1 = alloca i32, align 4
  %2 = alloca i64, align 8
  %3 = alloca i32, align 4
  %4 = alloca i32, align 4
  %5 = alloca i32, align 4
  %6 = alloca i32, align 4
  %7 = alloca [100 x i8], align 16
  store i32 0, i32* %1, align 4
  store i64 0, i64* %2, align 8
  %8 = getelementptr inbounds [100 x i8], [100 x i8]* %7, i64 0, i64 0
  %9 = call i32 (i8*, ...) @__isoc99_scanf(i8* getelementptr inbounds ([9 x i8], [9 x i8]* @.str, i64 0, i64 0), i32* %3, i8* %8, i32* %4)
  %10 = getelementptr inbounds [100 x i8], [100 x i8]* %7, i64 0, i64 0
  %11 = load i32, i32* %3, align 4
  %12 = call i64 @form(i8* %10, i32 %11)
  store i64 %12, i64* %2, align 8
  %13 = load i64, i64* %2, align 8
  %14 = getelementptr inbounds [100 x i8], [100 x i8]* %7, i64 0, i64 0
  %15 = load i32, i32* %4, align 4
  %16 = call i32 @reform(i64 %13, i8* %14, i32 %15)
  store i32 %16, i32* %5, align 4
  %17 = load i32, i32* %5, align 4
  store i32 %17, i32* %6, align 4
  br label %18

18:                                               ; preds = %28, %0
  %19 = load i32, i32* %6, align 4
  %20 = icmp sge i32 %19, 0
  br i1 %20, label %21, label %31

21:                                               ; preds = %18
  %22 = load i32, i32* %6, align 4
  %23 = sext i32 %22 to i64
  %24 = getelementptr inbounds [100 x i8], [100 x i8]* %7, i64 0, i64 %23
  %25 = load i8, i8* %24, align 1
  %26 = sext i8 %25 to i32
  %27 = call i32 (i8*, ...) @printf(i8* getelementptr inbounds ([3 x i8], [3 x i8]* @.str.1, i64 0, i64 0), i32 %26)
  br label %28

28:                                               ; preds = %21
  %29 = load i32, i32* %6, align 4
  %30 = add nsw i32 %29, -1
  store i32 %30, i32* %6, align 4
  br label %18

31:                                               ; preds = %18
  ret i32 0
}

declare dso_local i32 @__isoc99_scanf(i8*, ...) #3

declare dso_local i32 @printf(i8*, ...) #3


!llvm.module.flags = !{!0}
!llvm.ident = !{!1}

!0 = !{i32 1, !"wchar_size", i32 4}
!1 = !{!"clang version 10.0.0-4ubuntu1 "}
